; Function Attrs: mustprogress nofree norecurse nosync nounwind willreturn memory(readwrite, inaccessiblemem: none) uwtable
define dso_local void @_ZN11btMultiBody18setBaseDynamicTypeEi(ptr nocapture noundef nonnull readonly align 8 dereferenceable(640) %this, i32 noundef %dynamicType) local_unnamed_addr #8 align 2 {
entry:
  %m_baseCollider.i = getelementptr inbounds i8, ptr %this, i64 8
  %0 = load ptr, ptr %m_baseCollider.i, align 8
  %tobool.not = icmp eq ptr %0, null
  br i1 %tobool.not, label %if.end, label %if.then

if.then:                                          ; preds = %entry
  %m_collisionFlags.i = getelementptr inbounds i8, ptr %0, i64 224
  %1 = load i32, ptr %m_collisionFlags.i, align 8
  %and = and i32 %1, -4
  %or = or i32 %and, %dynamicType
  store i32 %or, ptr %m_collisionFlags.i, align 8
  br label %if.end

if.end:                                           ; preds = %if.then, %entry
  ret void
}